target datalayout = "e-m:e-p270:32:32-p271:32:32-p272:64:64-i64:64-i128:128-f80:128-n8:16:32:64-S128"
target triple = "x86_64-pc-linux-gnu"

%struct.strvec = type { ptr, i64, i64 }
%struct.git_hash_algo = type { ptr, i32, i64, i64, i64, ptr, ptr, ptr, ptr, ptr, ptr, ptr, ptr, ptr }
%struct.am_state = type { ptr, i32, i32, ptr, ptr, ptr, ptr, i64, %struct.object_id, i32, i32, i32, i32, i32, i32, i32, i32, i32, i32, i32, i32, %struct.strvec, ptr, i32, i32, i32, ptr, i32 }
%struct.object_id = type { [32 x i8], i32 }
%struct.repository = type { ptr, ptr, ptr, ptr, ptr, %struct.strmap, %struct.strmap, %struct.repo_path_cache, ptr, ptr, ptr, ptr, %struct.repo_settings, ptr, ptr, ptr, ptr, ptr, ptr, i32, i32, i32, ptr, ptr, i32, i32, i8 }
%struct.strmap = type { %struct.hashmap, ptr, i8 }
%struct.hashmap = type { ptr, ptr, ptr, i32, i32, i32, i32, i8 }
%struct.repo_path_cache = type { ptr, ptr, ptr, ptr, ptr, ptr, ptr }
%struct.repo_settings = type { i32, i32, i32, i32, i32, i32, i32, i32, i32, i32, i32, i32, ptr, i32, i32, i32, i32, i32, i32, i32, i64, i64, i64 }

@.str.72 = private unnamed_addr constant [1 x i8] zeroinitializer, align 1
@the_repository = external global ptr, align 8
@.str.83 = private unnamed_addr constant [6 x i8] c"%s/%s\00", align 1
@.str.108 = private unnamed_addr constant [5 x i8] c"next\00", align 1
@.str.112 = private unnamed_addr constant [16 x i8] c"original-commit\00", align 1
@.str.124 = private unnamed_addr constant [14 x i8] c"author-script\00", align 1
@.str.125 = private unnamed_addr constant [13 x i8] c"final-commit\00", align 1
@hash_algos = external constant [3 x %struct.git_hash_algo], align 16
@.str.128 = private unnamed_addr constant [12 x i8] c"REBASE_HEAD\00", align 1
@.str.137 = private unnamed_addr constant [5 x i8] c"HEAD\00", align 1
@.str.138 = private unnamed_addr constant [13 x i8] c"abort-safety\00", align 1
@.str.183 = private unnamed_addr constant [3 x i8] c"%s\00", align 1
@.str.184 = private unnamed_addr constant [3 x i8] c"%d\00", align 1

; Function Attrs: inlinehint nounwind uwtable
define internal i32 @hash_algo_by_ptr(ptr noundef %0) #5 {
  %2 = alloca i32, align 4
  %3 = alloca ptr, align 8
  %4 = alloca i64, align 8
  %5 = alloca ptr, align 8
  %6 = alloca i32, align 4
  store ptr %0, ptr %3, align 8, !tbaa !101
  call void @llvm.lifetime.start.p0(i64 8, ptr %4) #14
  store i64 0, ptr %4, align 8, !tbaa !103
  br label %7

7:                                                ; preds = %23, %1
  %8 = load i64, ptr %4, align 8, !tbaa !103
  %9 = icmp ult i64 %8, 3
  br i1 %9, label %10, label %26

10:                                               ; preds = %7
  call void @llvm.lifetime.start.p0(i64 8, ptr %5) #14
  %11 = load i64, ptr %4, align 8, !tbaa !103
  %12 = getelementptr inbounds nuw [3 x %struct.git_hash_algo], ptr @hash_algos, i64 0, i64 %11
  store ptr %12, ptr %5, align 8, !tbaa !101
  %13 = load ptr, ptr %3, align 8, !tbaa !101
  %14 = load ptr, ptr %5, align 8, !tbaa !101
  %15 = icmp eq ptr %13, %14
  br i1 %15, label %16, label %19

16:                                               ; preds = %10
  %17 = load i64, ptr %4, align 8, !tbaa !103
  %18 = trunc i64 %17 to i32
  store i32 %18, ptr %2, align 4
  store i32 1, ptr %6, align 4
  br label %20

19:                                               ; preds = %10
  store i32 0, ptr %6, align 4
  br label %20

20:                                               ; preds = %19, %16
  call void @llvm.lifetime.end.p0(i64 8, ptr %5) #14
  %21 = load i32, ptr %6, align 4
  switch i32 %21, label %27 [
    i32 0, label %22
  ]

22:                                               ; preds = %20
  br label %23

23:                                               ; preds = %22
  %24 = load i64, ptr %4, align 8, !tbaa !103
  %25 = add i64 %24, 1
  store i64 %25, ptr %4, align 8, !tbaa !103
  br label %7, !llvm.loop !105

26:                                               ; preds = %7
  store i32 0, ptr %2, align 4
  store i32 1, ptr %6, align 4
  br label %27

27:                                               ; preds = %26, %20
  call void @llvm.lifetime.end.p0(i64 8, ptr %4) #14
  %28 = load i32, ptr %2, align 4
  ret i32 %28
}

; Function Attrs: nounwind uwtable
define internal void @write_state_count(ptr noundef %0, ptr noundef %1, i32 noundef %2) #0 {
  %4 = alloca ptr, align 8
  %5 = alloca ptr, align 8
  %6 = alloca i32, align 4
  store ptr %0, ptr %4, align 8, !tbaa !47
  store ptr %1, ptr %5, align 8, !tbaa !11
  store i32 %2, ptr %6, align 4, !tbaa !4
  %7 = load ptr, ptr %4, align 8, !tbaa !47
  %8 = load ptr, ptr %5, align 8, !tbaa !11
  %9 = call ptr @am_path(ptr noundef %7, ptr noundef %8)
  %10 = load i32, ptr %6, align 4, !tbaa !4
  call void (ptr, ptr, ...) @write_file(ptr noundef %9, ptr noundef @.str.184, i32 noundef %10)
  ret void
}

; Function Attrs: nounwind uwtable
define internal void @write_state_text(ptr noundef %0, ptr noundef %1, ptr noundef %2) #0 {
  %4 = alloca ptr, align 8
  %5 = alloca ptr, align 8
  %6 = alloca ptr, align 8
  store ptr %0, ptr %4, align 8, !tbaa !47
  store ptr %1, ptr %5, align 8, !tbaa !11
  store ptr %2, ptr %6, align 8, !tbaa !11
  %7 = load ptr, ptr %4, align 8, !tbaa !47
  %8 = load ptr, ptr %5, align 8, !tbaa !11
  %9 = call ptr @am_path(ptr noundef %7, ptr noundef %8)
  %10 = load ptr, ptr %6, align 8, !tbaa !11
  call void (ptr, ptr, ...) @write_file(ptr noundef %9, ptr noundef @.str.183, ptr noundef %10)
  ret void
}

; Function Attrs: inlinehint nounwind uwtable
define internal void @oidclr(ptr noundef %0, ptr noundef %1) #5 {
  %3 = alloca ptr, align 8
  %4 = alloca ptr, align 8
  store ptr %0, ptr %3, align 8, !tbaa !100
  store ptr %1, ptr %4, align 8, !tbaa !101
  %5 = load ptr, ptr %3, align 8, !tbaa !100
  %6 = getelementptr inbounds nuw %struct.object_id, ptr %5, i32 0, i32 0
  %7 = getelementptr inbounds [32 x i8], ptr %6, i64 0, i64 0
  call void @llvm.memset.p0.i64(ptr align 4 %7, i8 0, i64 32, i1 false)
  %8 = load ptr, ptr %4, align 8, !tbaa !101
  %9 = call i32 @hash_algo_by_ptr(ptr noundef %8)
  %10 = load ptr, ptr %3, align 8, !tbaa !100
  %11 = getelementptr inbounds nuw %struct.object_id, ptr %10, i32 0, i32 1
  store i32 %9, ptr %11, align 4, !tbaa !102
  ret void
}

; Function Attrs: inlinehint nounwind uwtable
define internal ptr @am_path(ptr noundef %0, ptr noundef %1) #5 {
  %3 = alloca ptr, align 8
  %4 = alloca ptr, align 8
  store ptr %0, ptr %3, align 8, !tbaa !47
  store ptr %1, ptr %4, align 8, !tbaa !11
  %5 = load ptr, ptr %3, align 8, !tbaa !47
  %6 = getelementptr inbounds nuw %struct.am_state, ptr %5, i32 0, i32 0
  %7 = load ptr, ptr %6, align 8, !tbaa !31
  %8 = load ptr, ptr %4, align 8, !tbaa !11
  %9 = call ptr (ptr, ...) @mkpath(ptr noundef @.str.83, ptr noundef %7, ptr noundef %8)
  ret ptr %9
}

; Function Attrs: nounwind uwtable
define internal void @am_next(ptr noundef %0) #0 {
  %2 = alloca ptr, align 8
  %3 = alloca %struct.object_id, align 4
  store ptr %0, ptr %2, align 8, !tbaa !47
  call void @llvm.lifetime.start.p0(i64 36, ptr %3) #14
  br label %4

4:                                                ; preds = %1
  %5 = load ptr, ptr %2, align 8, !tbaa !47
  %6 = getelementptr inbounds nuw %struct.am_state, ptr %5, i32 0, i32 3
  %7 = load ptr, ptr %6, align 8, !tbaa !87
  call void @free(ptr noundef %7) #14
  %8 = load ptr, ptr %2, align 8, !tbaa !47
  %9 = getelementptr inbounds nuw %struct.am_state, ptr %8, i32 0, i32 3
  store ptr null, ptr %9, align 8, !tbaa !87
  br label %10

10:                                               ; preds = %4
  br label %11

11:                                               ; preds = %10
  br label %12

12:                                               ; preds = %11
  %13 = load ptr, ptr %2, align 8, !tbaa !47
  %14 = getelementptr inbounds nuw %struct.am_state, ptr %13, i32 0, i32 4
  %15 = load ptr, ptr %14, align 8, !tbaa !88
  call void @free(ptr noundef %15) #14
  %16 = load ptr, ptr %2, align 8, !tbaa !47
  %17 = getelementptr inbounds nuw %struct.am_state, ptr %16, i32 0, i32 4
  store ptr null, ptr %17, align 8, !tbaa !88
  br label %18

18:                                               ; preds = %12
  br label %19

19:                                               ; preds = %18
  br label %20

20:                                               ; preds = %19
  %21 = load ptr, ptr %2, align 8, !tbaa !47
  %22 = getelementptr inbounds nuw %struct.am_state, ptr %21, i32 0, i32 5
  %23 = load ptr, ptr %22, align 8, !tbaa !89
  call void @free(ptr noundef %23) #14
  %24 = load ptr, ptr %2, align 8, !tbaa !47
  %25 = getelementptr inbounds nuw %struct.am_state, ptr %24, i32 0, i32 5
  store ptr null, ptr %25, align 8, !tbaa !89
  br label %26

26:                                               ; preds = %20
  br label %27

27:                                               ; preds = %26
  br label %28

28:                                               ; preds = %27
  %29 = load ptr, ptr %2, align 8, !tbaa !47
  %30 = getelementptr inbounds nuw %struct.am_state, ptr %29, i32 0, i32 6
  %31 = load ptr, ptr %30, align 8, !tbaa !85
  call void @free(ptr noundef %31) #14
  %32 = load ptr, ptr %2, align 8, !tbaa !47
  %33 = getelementptr inbounds nuw %struct.am_state, ptr %32, i32 0, i32 6
  store ptr null, ptr %33, align 8, !tbaa !85
  br label %34

34:                                               ; preds = %28
  br label %35

35:                                               ; preds = %34
  %36 = load ptr, ptr %2, align 8, !tbaa !47
  %37 = getelementptr inbounds nuw %struct.am_state, ptr %36, i32 0, i32 7
  store i64 0, ptr %37, align 8, !tbaa !86
  %38 = load ptr, ptr %2, align 8, !tbaa !47
  %39 = call ptr @am_path(ptr noundef %38, ptr noundef @.str.124)
  %40 = call i32 @unlink(ptr noundef %39) #14
  %41 = load ptr, ptr %2, align 8, !tbaa !47
  %42 = call ptr @am_path(ptr noundef %41, ptr noundef @.str.125)
  %43 = call i32 @unlink(ptr noundef %42) #14
  %44 = load ptr, ptr %2, align 8, !tbaa !47
  %45 = getelementptr inbounds nuw %struct.am_state, ptr %44, i32 0, i32 8
  %46 = load ptr, ptr @the_repository, align 8, !tbaa !13
  %47 = getelementptr inbounds nuw %struct.repository, ptr %46, i32 0, i32 17
  %48 = load ptr, ptr %47, align 8, !tbaa !61
  call void @oidclr(ptr noundef %45, ptr noundef %48)
  %49 = load ptr, ptr %2, align 8, !tbaa !47
  %50 = call ptr @am_path(ptr noundef %49, ptr noundef @.str.112)
  %51 = call i32 @unlink(ptr noundef %50) #14
  %52 = load ptr, ptr @the_repository, align 8, !tbaa !13
  %53 = call ptr @get_main_ref_store(ptr noundef %52)
  %54 = call i32 @refs_delete_ref(ptr noundef %53, ptr noundef null, ptr noundef @.str.128, ptr noundef null, i32 noundef 1)
  %55 = load ptr, ptr @the_repository, align 8, !tbaa !13
  %56 = call i32 @repo_get_oid(ptr noundef %55, ptr noundef @.str.137, ptr noundef %3)
  %57 = icmp ne i32 %56, 0
  br i1 %57, label %61, label %58

58:                                               ; preds = %35
  %59 = load ptr, ptr %2, align 8, !tbaa !47
  %60 = call ptr @oid_to_hex(ptr noundef %3)
  call void @write_state_text(ptr noundef %59, ptr noundef @.str.138, ptr noundef %60)
  br label %63

61:                                               ; preds = %35
  %62 = load ptr, ptr %2, align 8, !tbaa !47
  call void @write_state_text(ptr noundef %62, ptr noundef @.str.138, ptr noundef @.str.72)
  br label %63

63:                                               ; preds = %61, %58
  %64 = load ptr, ptr %2, align 8, !tbaa !47
  %65 = getelementptr inbounds nuw %struct.am_state, ptr %64, i32 0, i32 1
  %66 = load i32, ptr %65, align 8, !tbaa !59
  %67 = add nsw i32 %66, 1
  store i32 %67, ptr %65, align 8, !tbaa !59
  %68 = load ptr, ptr %2, align 8, !tbaa !47
  %69 = load ptr, ptr %2, align 8, !tbaa !47
  %70 = getelementptr inbounds nuw %struct.am_state, ptr %69, i32 0, i32 1
  %71 = load i32, ptr %70, align 8, !tbaa !59
  call void @write_state_count(ptr noundef %68, ptr noundef @.str.108, i32 noundef %71)
  call void @llvm.lifetime.end.p0(i64 36, ptr %3) #14
  ret void
}