; Function Attrs: nounwind uwtable
define internal fastcc void @am_next(ptr noundef nonnull captures(none) initializes((48, 88)) %0) unnamed_addr #0 {
  %2 = alloca %struct.object_id, align 4
  call void @llvm.lifetime.start.p0(i64 36, ptr nonnull %2) #21
  %3 = getelementptr inbounds nuw i8, ptr %0, i64 16
  %4 = load ptr, ptr %3, align 8, !tbaa !41
  tail call void @free(ptr noundef %4) #21
  store ptr null, ptr %3, align 8, !tbaa !41
  %5 = getelementptr inbounds nuw i8, ptr %0, i64 24
  %6 = load ptr, ptr %5, align 8, !tbaa !42
  tail call void @free(ptr noundef %6) #21
  store ptr null, ptr %5, align 8, !tbaa !42
  %7 = getelementptr inbounds nuw i8, ptr %0, i64 32
  %8 = load ptr, ptr %7, align 8, !tbaa !43
  tail call void @free(ptr noundef %8) #21
  store ptr null, ptr %7, align 8, !tbaa !43
  %9 = getelementptr inbounds nuw i8, ptr %0, i64 40
  %10 = load ptr, ptr %9, align 8, !tbaa !39
  tail call void @free(ptr noundef %10) #21
  tail call void @llvm.memset.p0.i64(ptr noundef nonnull align 8 dereferenceable(16) %9, i8 0, i64 16, i1 false)
  %.val19 = load ptr, ptr %0, align 8, !tbaa !23
  %11 = tail call ptr (ptr, ...) @mkpath(ptr noundef nonnull @.str.83, ptr noundef %.val19, ptr noundef nonnull @.str.124) #21
  %12 = tail call i32 @unlink(ptr noundef %11) #21
  %.val18 = load ptr, ptr %0, align 8, !tbaa !23
  %13 = tail call ptr (ptr, ...) @mkpath(ptr noundef nonnull @.str.83, ptr noundef %.val18, ptr noundef nonnull @.str.125) #21
  %14 = tail call i32 @unlink(ptr noundef %13) #21
  %15 = getelementptr inbounds nuw i8, ptr %0, i64 56
  %16 = load ptr, ptr @the_repository, align 8, !tbaa !21
  %17 = getelementptr inbounds nuw i8, ptr %16, i64 400
  %18 = load ptr, ptr %17, align 8, !tbaa !82
  tail call void @llvm.memset.p0.i64(ptr noundef nonnull align 4 dereferenceable(32) %15, i8 0, i64 32, i1 false)
  br label %19

19:                                               ; preds = %21, %1
  %.0811.i.i = phi i64 [ 0, %1 ], [ %22, %21 ]
  %20 = getelementptr inbounds nuw [3 x %struct.git_hash_algo], ptr @hash_algos, i64 0, i64 %.0811.i.i
  %.not.i.i = icmp eq ptr %18, %20
  br i1 %.not.i.i, label %.split.loop.exit9.i.i, label %21

21:                                               ; preds = %19
  %22 = add nuw nsw i64 %.0811.i.i, 1
  %exitcond.not.i.i = icmp eq i64 %22, 3
  br i1 %exitcond.not.i.i, label %oidclr.exit, label %19, !llvm.loop !132

.split.loop.exit9.i.i:                            ; preds = %19
  %23 = trunc nuw nsw i64 %.0811.i.i to i32
  br label %oidclr.exit

oidclr.exit:                                      ; preds = %21, %.split.loop.exit9.i.i
  %.2.i.i = phi i32 [ %23, %.split.loop.exit9.i.i ], [ 0, %21 ]
  %24 = getelementptr inbounds nuw i8, ptr %0, i64 88
  store i32 %.2.i.i, ptr %24, align 4, !tbaa !131
  %.val = load ptr, ptr %0, align 8, !tbaa !23
  %25 = tail call ptr (ptr, ...) @mkpath(ptr noundef nonnull @.str.83, ptr noundef %.val, ptr noundef nonnull @.str.112) #21
  %26 = tail call i32 @unlink(ptr noundef %25) #21
  %27 = load ptr, ptr @the_repository, align 8, !tbaa !21
  %28 = tail call ptr @get_main_ref_store(ptr noundef %27) #21
  %29 = tail call i32 @refs_delete_ref(ptr noundef %28, ptr noundef null, ptr noundef nonnull @.str.128, ptr noundef null, i32 noundef 1) #21
  %30 = load ptr, ptr @the_repository, align 8, !tbaa !21
  %31 = call i32 @repo_get_oid(ptr noundef %30, ptr noundef nonnull @.str.137, ptr noundef nonnull %2) #21
  %.not = icmp eq i32 %31, 0
  br i1 %.not, label %32, label %34

32:                                               ; preds = %oidclr.exit
  %33 = call ptr @oid_to_hex(ptr noundef nonnull %2) #21
  br label %34

34:                                               ; preds = %oidclr.exit, %32
  %.str.72.sink = phi ptr [ %33, %32 ], [ @.str.72, %oidclr.exit ]
  %.val20 = load ptr, ptr %0, align 8, !tbaa !23
  %35 = call ptr (ptr, ...) @mkpath(ptr noundef nonnull @.str.83, ptr noundef %.val20, ptr noundef nonnull @.str.138) #21
  call void (ptr, ptr, ...) @write_file(ptr noundef %35, ptr noundef nonnull @.str.183, ptr noundef %.str.72.sink) #21
  %36 = getelementptr inbounds nuw i8, ptr %0, i64 8
  %37 = load i32, ptr %36, align 8, !tbaa !62
  %38 = add nsw i32 %37, 1
  store i32 %38, ptr %36, align 8, !tbaa !62
  %.val22 = load ptr, ptr %0, align 8, !tbaa !23
  %39 = call ptr (ptr, ...) @mkpath(ptr noundef nonnull @.str.83, ptr noundef %.val22, ptr noundef nonnull @.str.108) #21
  call void (ptr, ptr, ...) @write_file(ptr noundef %39, ptr noundef nonnull @.str.184, i32 noundef %38) #21
  call void @llvm.lifetime.end.p0(i64 36, ptr nonnull %2) #21
  ret void
}